; Function Attrs: mustprogress uwtable
define dso_local noundef i32 @_ZN3net26QuicClientPushPromiseIndex3TryERKNS_15SpdyHeaderBlockEPNS0_8DelegateEPPNS0_9TryHandleE(ptr noundef nonnull align 8 dereferenceable(64) %this, ptr noundef nonnull align 8 dereferenceable(88) %request, ptr noundef %delegate, ptr nocapture noundef writeonly %handle) local_unnamed_addr #4 align 2 personality ptr @__gxx_personality_v0 {
entry:
  %url = alloca %"class.std::__cxx11::basic_string", align 8
  call void @_ZN3net9SpdyUtils21GetUrlFromHeaderBlockB5cxx11ERKNS_15SpdyHeaderBlockE(ptr nonnull sret(%"class.std::__cxx11::basic_string") align 8 %url, ptr noundef nonnull align 8 dereferenceable(88) %request)
  %promised_by_url_ = getelementptr inbounds i8, ptr %this, i64 8
  %call.i4 = invoke ptr @_ZNSt10_HashtableINSt7__cxx1112basic_stringIcSt11char_traitsIcESaIcEEESt4pairIKS5_PN3net22QuicClientPromisedInfoEESaISB_ENSt8__detail10_Select1stESt8equal_toIS5_ESt4hashIS5_ENSD_18_Mod_range_hashingENSD_20_Default_ranged_hashENSD_20_Prime_rehash_policyENSD_17_Hashtable_traitsILb1ELb0ELb1EEEE4findERS7_(ptr noundef nonnull align 8 dereferenceable(56) %promised_by_url_, ptr noundef nonnull align 8 dereferenceable(32) %url)
          to label %invoke.cont unwind label %lpad

invoke.cont:                                      ; preds = %entry
  %cmp.i.not = icmp eq ptr %call.i4, null
  br i1 %cmp.i.not, label %cleanup, label %if.then

if.then:                                          ; preds = %invoke.cont
  %second = getelementptr inbounds i8, ptr %call.i4, i64 40
  %0 = load ptr, ptr %second, align 8
  %vtable = load ptr, ptr %0, align 8
  %vfn = getelementptr inbounds i8, ptr %vtable, i64 24
  %1 = load ptr, ptr %vfn, align 8
  %call10 = invoke noundef i32 %1(ptr noundef nonnull align 8 dereferenceable(96) %0, ptr noundef nonnull align 8 dereferenceable(88) %request, ptr noundef %delegate)
          to label %invoke.cont9 unwind label %lpad

invoke.cont9:                                     ; preds = %if.then
  %cmp = icmp eq i32 %call10, 2
  br i1 %cmp, label %if.then11, label %cleanup

if.then11:                                        ; preds = %invoke.cont9
  store ptr %0, ptr %handle, align 8
  br label %cleanup

lpad:                                             ; preds = %entry, %if.then
  %2 = landingpad { ptr, i32 }
          cleanup
  call void @_ZNSt7__cxx1112basic_stringIcSt11char_traitsIcESaIcEED1Ev(ptr noundef nonnull align 8 dereferenceable(32) %url) #10
  resume { ptr, i32 } %2

cleanup:                                          ; preds = %invoke.cont, %invoke.cont9, %if.then11
  %retval.0 = phi i32 [ 2, %if.then11 ], [ %call10, %invoke.cont9 ], [ 1, %invoke.cont ]
  call void @_ZNSt7__cxx1112basic_stringIcSt11char_traitsIcESaIcEED1Ev(ptr noundef nonnull align 8 dereferenceable(32) %url) #10
  ret i32 %retval.0
}